; Function Attrs: mustprogress uwtable
define hidden void @_ZN6spacer18unsat_core_learner20compute_partial_coreEP3app(ptr noundef nonnull align 8 dereferenceable(104) %this, ptr noundef %step) local_unnamed_addr #6 align 2 {
entry:
  %m_plugins = getelementptr inbounds i8, ptr %this, i64 24
  %0 = load ptr, ptr %m_plugins, align 8
  %cmp.i.i = icmp eq ptr %0, null
  br i1 %cmp.i.i, label %for.end, label %_ZN6vectorIPN6spacer17unsat_core_pluginELb0EjE3endEv.exit

_ZN6vectorIPN6spacer17unsat_core_pluginELb0EjE3endEv.exit: ; preds = %entry
  %arrayidx.i.i = getelementptr inbounds i8, ptr %0, i64 -4
  %1 = load i32, ptr %arrayidx.i.i, align 4
  %2 = zext i32 %1 to i64
  %add.ptr.i = getelementptr inbounds ptr, ptr %0, i64 %2
  %cmp.not5 = icmp eq i32 %1, 0
  br i1 %cmp.not5, label %for.end, label %for.body.lr.ph

for.body.lr.ph:                                   ; preds = %_ZN6vectorIPN6spacer17unsat_core_pluginELb0EjE3endEv.exit
  %m_closed.i = getelementptr inbounds i8, ptr %this, i64 32
  br label %for.body

for.body:                                         ; preds = %for.body.lr.ph, %if.end
  %__begin1.06 = phi ptr [ %0, %for.body.lr.ph ], [ %incdec.ptr, %if.end ]
  %3 = load ptr, ptr %__begin1.06, align 8
  %call.i = tail call noundef zeroext i1 @_ZNK8ast_mark9is_markedEP3ast(ptr noundef nonnull align 8 dereferenceable(56) %m_closed.i, ptr noundef %step)
  br i1 %call.i, label %for.end, label %if.end

if.end:                                           ; preds = %for.body
  %vtable = load ptr, ptr %3, align 8
  %vfn = getelementptr inbounds i8, ptr %vtable, i64 16
  %4 = load ptr, ptr %vfn, align 8
  tail call void %4(ptr noundef nonnull align 8 dereferenceable(24) %3, ptr noundef %step)
  %incdec.ptr = getelementptr inbounds i8, ptr %__begin1.06, i64 8
  %cmp.not = icmp eq ptr %incdec.ptr, %add.ptr.i
  br i1 %cmp.not, label %for.end, label %for.body

for.end:                                          ; preds = %if.end, %for.body, %entry, %_ZN6vectorIPN6spacer17unsat_core_pluginELb0EjE3endEv.exit
  ret void
}